target datalayout = "e-m:e-p270:32:32-p271:32:32-p272:64:64-i64:64-i128:128-f80:128-n8:16:32:64-S128"
target triple = "x86_64-pc-linux-gnu"

@.str = private unnamed_addr constant [22 x i8] c"kMaxAllocSize >= size\00", align 1
@.str.1 = private unnamed_addr constant [140 x i8] c"generated/home/dtcxzyw/WorkSpace/Projects/compilers/llvm-opt-benchmark/bench/recastnavigation/recastnavigation/Tests/Recast/Tests_Alloc.cpp\00", align 1

; Function Attrs: mustprogress uwtable
define dso_local noundef ptr @_Z12AllocAndInitm11rcAllocHint(i64 noundef %0, i32 noundef %1) #0 {
  %3 = alloca i64, align 8
  %4 = alloca i32, align 4
  %5 = alloca ptr, align 8
  store i64 %0, ptr %3, align 8
  store i32 %1, ptr %4, align 4
  %6 = call noundef ptr @_Z21rcAssertFailGetCustomv()
  store ptr %6, ptr %5, align 8
  %7 = load ptr, ptr %5, align 8
  %8 = icmp eq ptr %7, null
  br i1 %8, label %9, label %10

9:                                                ; preds = %2
  br label %16

10:                                               ; preds = %2
  %11 = load i64, ptr %3, align 8
  %12 = icmp uge i64 1024, %11
  br i1 %12, label %15, label %13

13:                                               ; preds = %10
  %14 = load ptr, ptr %5, align 8
  call void %14(ptr noundef @.str, ptr noundef @.str.1, i32 noundef 35)
  br label %15

15:                                               ; preds = %13, %10
  br label %16

16:                                               ; preds = %15, %9
  %17 = call noalias ptr @malloc(i64 noundef 1024) #12
  call void @llvm.memset.p0.i64(ptr align 1 %17, i8 0, i64 1024, i1 false)
  ret ptr %17
}