; Function Attrs: mustprogress uwtable
define dso_local noundef ptr @_Z12AllocAndInitm11rcAllocHint(i64 noundef %0, i32 %1) #0 {
  %3 = tail call noundef ptr @_Z21rcAssertFailGetCustomv()
  %4 = icmp eq ptr %3, null
  %5 = icmp ult i64 %0, 1025
  %or.cond = or i1 %5, %4
  br i1 %or.cond, label %7, label %6

6:                                                ; preds = %2
  tail call void %3(ptr noundef nonnull @.str, ptr noundef nonnull @.str.1, i32 noundef 35)
  br label %7

7:                                                ; preds = %6, %2
  %calloc = tail call dereferenceable_or_null(1024) ptr @calloc(i64 1, i64 1024)
  ret ptr %calloc
}